(dp1
S'responses'
p2
(lp3
(lp4
I0
aF3.3001239375807927
aS'right'
p5
aa(lp6
I0
aF7.8740349258878268
aS'left'
p7
aa(lp8
I0
aF10.900691466658827
aS'right'
p9
aa(lp10
I0
aF12.084000159374227
aS'left'
p11
aa(lp12
I0
aF13.324850782895282
aS'right'
p13
aa(lp14
I0
aF15.184138162934687
aS'left'
p15
aa(lp16
I0
aF16.259343462850666
aS'right'
p17
aa(lp18
I0
aF19.009467370247421
aS'left'
p19
aa(lp20
I0
aF22.143197408478954
aS'down'
p21
aa(lp22
I0
aF25.301644934828346
aS'right'
p23
aa(lp24
I0
aF28.025859971662612
aS'left'
p25
aa(lp26
I0
aF29.70169166044343
aS'right'
p27
aa(lp28
I0
aF31.235320218366724
aS'left'
p29
aa(lp30
I0
aF32.675767093938248
aS'right'
p31
aa(lp32
I0
aF35.744044446080807
aS'left'
p33
aa(lp34
I0
aF36.78560368106082
aS'right'
p35
aa(lp36
I0
aF39.926517027985028
aS'left'
p37
aa(lp38
I0
aF41.326291187512652
aS'down'
p39
aa(lp40
I0
aF43.18609472260141
aS'left'
p41
aa(lp42
I0
aF46.78624932763978
aS'right'
p43
aa(lp44
I0
aF51.695029638166034
aS'left'
p45
aa(lp46
I0
aF53.903390263323217
aS'right'
p47
aa(lp48
I0
aF56.277083802450761
aS'left'
p49
aa(lp50
I0
aF57.312018745785281
aS'right'
p51
aa(lp52
I0
aF62.927665246586002
aS'left'
p53
aa(lp54
I0
aF66.029152195711504
aS'down'
p55
aa(lp56
I0
aF70.07944652482729
aS'right'
p57
aa(lp58
I0
aF72.546366117529942
aS'left'
p59
aa(lp60
I0
aF73.469824549541499
aS'right'
p61
aa(lp62
I0
aF75.679790386717741
aS'left'
p63
aa(lp64
I0
aF80.046601556675341
aS'right'
p65
aa(lp66
I0
aF83.72076011829904
aS'left'
p67
aa(lp68
I0
aF89.071045271325147
aS'right'
p69
aa(lp70
I0
aF91.121500785702665
aS'left'
p71
aa(lp72
I0
aF93.930960489085464
aS'down'
p73
aa(lp74
I0
aF95.889579946380309
aS'left'
p75
aa(lp76
I0
aF101.67188566833602
aS'right'
p77
aa(lp78
I0
aF105.8567425243541
aS'left'
p79
aa(lp80
I0
aF109.80699876062408
aS'right'
p81
aa(lp82
I0
aF116.24913053531009
aS'left'
p83
aa(lp84
I0
aF118.95768585052974
aS'left'
p85
aa(lp86
I0
aF119.80773526256598
aS'right'
p87
aa(lp88
I1
aF0.62199309499237643
aS'right'
p89
aa(lp90
I1
aF1.7980719948759543
aS'left'
p91
aa(lp92
I1
aF3.0314664417719541
aS'right'
p93
aa(lp94
I1
aF3.9218858192589323
aS'left'
p95
aa(lp96
I1
aF10.831965270915134
aS'right'
p97
aa(lp98
I1
aF15.672823199086906
aS'left'
p99
aa(lp100
I1
aF23.491297806975126
aS'right'
p101
aa(lp102
I1
aF27.673399119457827
aS'left'
p103
aa(lp104
I1
aF31.600081558534839
aS'right'
p105
aa(lp106
I1
aF36.992235639570481
aS'left'
p107
aa(lp108
I1
aF44.724990778633583
aS'right'
p109
aa(lp110
I1
aF47.584341244290044
aS'left'
p111
aa(lp112
I1
aF49.101121112914825
aS'down'
p113
aa(lp114
I1
aF51.693058589936754
aS'right'
p115
aa(lp116
I1
aF58.960096385163979
aS'left'
p117
aa(lp118
I1
aF66.752260366717564
aS'down'
p119
aa(lp120
I1
aF68.335736221225943
aS'right'
p121
aa(lp122
I1
aF72.002671026918961
aS'left'
p123
aa(lp124
I1
aF72.976328405008644
aS'down'
p125
aa(lp126
I1
aF76.061193350474241
aS'left'
p127
aa(lp128
I1
aF81.186584918975768
aS'right'
p129
aa(lp130
I1
aF87.50365896579433
aS'down'
p131
aa(lp132
I1
aF89.177751423350401
aS'left'
p133
aa(lp134
I1
aF95.387346594795417
aS'right'
p135
aa(lp136
I1
aF98.779322889091873
aS'down'
p137
aa(lp138
I1
aF101.57953375804937
aS'right'
p139
aa(lp140
I1
aF103.8702630700418
aS'left'
p141
aa(lp142
I1
aF105.24641091133662
aS'down'
p143
aa(lp144
I1
aF106.93831856606676
aS'left'
p145
aa(lp146
I1
aF108.74663397483482
aS'right'
p147
aa(lp148
I1
aF110.77030194768531
aS'left'
p149
aa(lp150
I1
aF114.42112939554318
aS'right'
p151
aa(lp152
I2
aF0.62767623374611503
aS'right'
p153
aa(lp154
I2
aF6.8959760431612267
aS'left'
p155
aa(lp156
I2
aF9.9695540963693929
aS'right'
p157
aa(lp158
I2
aF12.1794695254207
aS'down'
p159
aa(lp160
I2
aF13.970025578350032
aS'right'
p161
aa(lp162
I2
aF15.204747237966785
aS'left'
p163
aa(lp164
I2
aF17.746548250837805
aS'right'
p165
aa(lp166
I2
aF20.404959555780351
aS'left'
p167
aa(lp168
I2
aF21.438653614081431
aS'right'
p169
aa(lp170
I2
aF22.32039856828851
aS'down'
p171
aa(lp172
I2
aF24.530205031273908
aS'left'
p173
aa(lp174
I2
aF25.696965672368606
aS'right'
p175
aa(lp176
I2
aF27.20539016794055
aS'down'
p177
aa(lp178
I2
aF29.221395200301231
aS'right'
p179
aa(lp180
I2
aF32.75584688969775
aS'left'
p181
aa(lp182
I2
aF34.222727846232829
aS'down'
p183
aa(lp184
I2
aF35.347677513569124
aS'left'
p185
aa(lp186
I2
aF37.506061048766696
aS'down'
p187
aa(lp188
I2
aF40.339467327989041
aS'left'
p189
aa(lp190
I2
aF41.371842323385863
aS'right'
p191
aa(lp192
I2
aF43.231438490919572
aS'left'
p193
aa(lp194
I2
aF45.248314346272764
aS'right'
p195
aa(lp196
I2
aF47.598380359786916
aS'left'
p197
aa(lp198
I2
aF50.706912674413616
aS'right'
p199
aa(lp200
I2
aF51.856989735456864
aS'down'
p201
aa(lp202
I2
aF54.532138650716206
aS'right'
p203
aa(lp204
I2
aF59.407476943565143
aS'left'
p205
aa(lp206
I2
aF60.70741766119545
aS'down'
p207
aa(lp208
I2
aF61.891218965045482
aS'right'
p209
aa(lp210
I2
aF63.357816187226035
aS'left'
p211
aa(lp212
I2
aF64.873380525801622
aS'right'
p213
aa(lp214
I2
aF66.799703165569554
aS'left'
p215
aa(lp216
I2
aF68.908144624833767
aS'right'
p217
aa(lp218
I2
aF71.983259673077555
aS'left'
p219
aa(lp220
I2
aF73.883564778062009
aS'right'
p221
aa(lp222
I2
aF75.458502945101827
aS'left'
p223
aa(lp224
I2
aF77.183593030759766
aS'right'
p225
aa(lp226
I2
aF80.592248075586667
aS'left'
p227
aa(lp228
I2
aF83.200769221945848
aS'left'
p229
aa(lp230
I2
aF84.774784346798242
aS'down'
p231
aa(lp232
I2
aF85.792651763167214
aS'right'
p233
aa(lp234
I2
aF90.909500512834711
aS'left'
p235
aa(lp236
I2
aF93.534757156595333
aS'right'
p237
aa(lp238
I2
aF95.12551109914466
aS'left'
p239
aa(lp240
I2
aF96.784916078018341
aS'right'
p241
aa(lp242
I2
aF99.575707570092618
aS'left'
p243
aa(lp244
I2
aF100.62584041210266
aS'down'
p245
aa(lp246
I2
aF102.17562220831041
aS'right'
p247
aa(lp248
I2
aF103.69364809333501
aS'left'
p249
aa(lp250
I2
aF104.22592710200342
aS'right'
p251
aa(lp252
I2
aF110.98576498705961
aS'left'
p253
aa(lp254
I2
aF117.82700293815969
aS'right'
p255
aas.