(dp1
S'responses'
p2
(lp3
(lp4
I0
aF1.9224192705653422
aS'right'
p5
aa(lp6
I0
aF5.8575589301253785
aS'left'
p7
aa(lp8
I0
aF10.224088266978924
aS'right'
p9
aa(lp10
I0
aF18.032709830426029
aS'left'
p11
aa(lp12
I0
aF26.483326788308432
aS'right'
p13
aa(lp14
I0
aF35.300630344747105
aS'left'
p15
aa(lp16
I0
aF39.892771666572571
aS'right'
p17
aa(lp18
I0
aF43.309542947989712
aS'left'
p19
aa(lp20
I0
aF46.027430546017968
aS'right'
p21
aa(lp22
I0
aF50.225052060867711
aS'left'
p23
aa(lp24
I0
aF52.193531201355654
aS'right'
p25
aa(lp26
I0
aF55.935646156943449
aS'left'
p27
aa(lp28
I0
aF64.494148868576076
aS'right'
p29
aa(lp30
I0
aF71.203041761282748
aS'left'
p31
aa(lp32
I0
aF73.42896525120068
aS'right'
p33
aa(lp34
I0
aF78.636700715887855
aS'left'
p35
aa(lp36
I0
aF89.168802477792497
aS'right'
p37
aa(lp38
I0
aF91.669378550650663
aS'left'
p39
aa(lp40
I0
aF100.97051810939433
aS'right'
p41
aa(lp42
I0
aF103.66978845735321
aS'left'
p43
aa(lp44
I0
aF105.77142871803949
aS'right'
p45
aa(lp46
I0
aF107.69723681227811
aS'left'
p47
aa(lp48
I0
aF111.02088381076805
aS'right'
p49
aa(lp50
I0
aF112.36962718110067
aS'left'
p51
aa(lp52
I0
aF115.97194372747663
aS'right'
p53
aa(lp54
I0
aF118.33153694789735
aS'left'
p55
aa(lp56
I1
aF1.1598059613957048
aS'right'
p57
aa(lp58
I1
aF9.5106064113876982
aS'left'
p59
aa(lp60
I1
aF12.452287674817853
aS'right'
p61
aa(lp62
I1
aF17.027675343025294
aS'left'
p63
aa(lp64
I1
aF22.944470923035624
aS'right'
p65
aa(lp66
I1
aF32.145430853297285
aS'left'
p67
aa(lp68
I1
aF55.070877034328078
aS'right'
p69
aa(lp70
I1
aF68.589485078098051
aS'left'
p71
aa(lp72
I1
aF87.372089941620061
aS'right'
p73
aa(lp74
I1
aF116.67471458208388
aS'left'
p75
aa(lp76
I2
aF0.95153502212087915
aS'right'
p77
aa(lp78
I2
aF11.276088765628629
aS'left'
p79
aa(lp80
I2
aF20.836163490594117
aS'right'
p81
aa(lp82
I2
aF30.003327850806272
aS'left'
p83
aa(lp84
I2
aF36.97611855781679
aS'right'
p85
aa(lp86
I2
aF39.976454814125191
aS'left'
p87
aa(lp88
I2
aF45.169848977452148
aS'right'
p89
aa(lp90
I2
aF52.221313095975802
aS'left'
p91
aa(lp92
I2
aF56.930151958270471
aS'right'
p93
aa(lp94
I2
aF63.597042997039807
aS'left'
p95
aa(lp96
I2
aF72.371276768824373
aS'right'
p97
aa(lp98
I2
aF79.806775775902679
aS'left'
p99
aa(lp100
I2
aF89.090857722228975
aS'right'
p101
aa(lp102
I2
aF99.82438818104356
aS'left'
p103
aa(lp104
I2
aF105.0999840323534
aS'right'
p105
aa(lp106
I2
aF114.54244662383917
aS'left'
p107
aa(lp108
I2
aF117.10090405858955
aS'right'
p109
aas.