(dp1
S'responses'
p2
(lp3
(lp4
I-1
aF1.0561750271435812
aS'right'
p5
aa(lp6
I-1
aF11.840113445754696
aS'left'
p7
aa(lp8
I-1
aF27.807648110490163
aS'right'
p9
aa(lp10
I0
aF0.85098895274268216
aS'right'
p11
aa(lp12
I0
aF15.134998154212326
aS'left'
p13
aa(lp14
I0
aF27.975980312404317
aS'right'
p15
aa(lp16
I0
aF38.853602032509343
aS'left'
p17
aa(lp18
I0
aF46.03715783128564
aS'right'
p19
aa(lp20
I0
aF56.546179249967281
aS'left'
p21
aa(lp22
I0
aF72.397125642441097
aS'right'
p23
aa(lp24
I0
aF85.322224097020353
aS'left'
p25
aa(lp26
I0
aF93.02201814757791
aS'right'
p27
aa(lp28
I0
aF100.50737273649543
aS'left'
p29
aa(lp30
I0
aF111.02388536617968
aS'right'
p31
aas.